target datalayout = "e-m:e-p270:32:32-p271:32:32-p272:64:64-i64:64-i128:128-f80:128-n8:16:32:64-S128"
target triple = "x86_64-pc-linux-gnu"

%"class.std::__cxx11::basic_string" = type { %"struct.std::__cxx11::basic_string<char>::_Alloc_hider", i64, %union.anon }
%"struct.std::__cxx11::basic_string<char>::_Alloc_hider" = type { ptr }
%union.anon = type { i64, [8 x i8] }
%"class.std::unique_ptr.23" = type { %"struct.std::__uniq_ptr_data.24" }
%"struct.std::__uniq_ptr_data.24" = type { %"class.std::__uniq_ptr_impl.25" }
%"class.std::__uniq_ptr_impl.25" = type { %"class.std::tuple.26" }
%"class.std::tuple.26" = type { %"struct.std::_Tuple_impl.27" }
%"struct.std::_Tuple_impl.27" = type { %"struct.std::_Head_base.30" }
%"struct.std::_Head_base.30" = type { ptr }
%class.cmCursesMainForm = type <{ %class.cmCursesForm, %"class.std::vector.3", %"class.std::unique_ptr", %"class.std::vector", i8, [7 x i8], %"class.std::__cxx11::basic_string", %"class.std::vector", %"class.std::vector", %"class.std::vector.10", i64, i8, i8, [2 x i8], i32, i8, [7 x i8], %"class.std::unique_ptr.15", i32, [4 x i8], %"class.std::unique_ptr.23", %"class.std::__cxx11::basic_string", %"class.std::__cxx11::basic_string", i8, [7 x i8] }>
%class.cmCursesForm = type { ptr, ptr }
%"class.std::vector.3" = type { %"struct.std::_Vector_base.4" }
%"struct.std::_Vector_base.4" = type { %"struct.std::_Vector_base<cmCursesCacheEntryComposite, std::allocator<cmCursesCacheEntryComposite>>::_Vector_impl" }
%"struct.std::_Vector_base<cmCursesCacheEntryComposite, std::allocator<cmCursesCacheEntryComposite>>::_Vector_impl" = type { %"struct.std::_Vector_base<cmCursesCacheEntryComposite, std::allocator<cmCursesCacheEntryComposite>>::_Vector_impl_data" }
%"struct.std::_Vector_base<cmCursesCacheEntryComposite, std::allocator<cmCursesCacheEntryComposite>>::_Vector_impl_data" = type { ptr, ptr, ptr }
%"class.std::unique_ptr" = type { %"struct.std::__uniq_ptr_data" }
%"struct.std::__uniq_ptr_data" = type { %"class.std::__uniq_ptr_impl" }
%"class.std::__uniq_ptr_impl" = type { %"class.std::tuple" }
%"class.std::tuple" = type { %"struct.std::_Tuple_impl" }
%"struct.std::_Tuple_impl" = type { %"struct.std::_Head_base.9" }
%"struct.std::_Head_base.9" = type { ptr }
%"class.std::vector" = type { %"struct.std::_Vector_base" }
%"struct.std::_Vector_base" = type { %"struct.std::_Vector_base<std::__cxx11::basic_string<char>, std::allocator<std::__cxx11::basic_string<char>>>::_Vector_impl" }
%"struct.std::_Vector_base<std::__cxx11::basic_string<char>, std::allocator<std::__cxx11::basic_string<char>>>::_Vector_impl" = type { %"struct.std::_Vector_base<std::__cxx11::basic_string<char>, std::allocator<std::__cxx11::basic_string<char>>>::_Vector_impl_data" }
%"struct.std::_Vector_base<std::__cxx11::basic_string<char>, std::allocator<std::__cxx11::basic_string<char>>>::_Vector_impl_data" = type { ptr, ptr, ptr }
%"class.std::vector.10" = type { %"struct.std::_Vector_base.11" }
%"struct.std::_Vector_base.11" = type { %"struct.std::_Vector_base<fieldnode *, std::allocator<fieldnode *>>::_Vector_impl" }
%"struct.std::_Vector_base<fieldnode *, std::allocator<fieldnode *>>::_Vector_impl" = type { %"struct.std::_Vector_base<fieldnode *, std::allocator<fieldnode *>>::_Vector_impl_data" }
%"struct.std::_Vector_base<fieldnode *, std::allocator<fieldnode *>>::_Vector_impl_data" = type { ptr, ptr, ptr }
%"class.std::unique_ptr.15" = type { %"struct.std::__uniq_ptr_data.16" }
%"struct.std::__uniq_ptr_data.16" = type { %"class.std::__uniq_ptr_impl.17" }
%"class.std::__uniq_ptr_impl.17" = type { %"class.std::tuple.18" }
%"class.std::tuple.18" = type { %"struct.std::_Tuple_impl.19" }
%"struct.std::_Tuple_impl.19" = type { %"struct.std::_Head_base.22" }
%"struct.std::_Head_base.22" = type { ptr }
%struct._win_st = type { i16, i16, i16, i16, i16, i16, i16, i32, i32, i8, i8, i8, i8, i8, i8, i8, i8, i8, i32, ptr, i16, i16, i32, i32, ptr, %"struct._win_st::pdat", i16, %struct.cchar_t, i32 }
%"struct._win_st::pdat" = type { i16, i16, i16, i16, i16, i16 }
%struct.cchar_t = type { i32, [5 x i32], i32 }

@stdscr = external global ptr, align 8
@_ZN12cmCursesForm11CurrentFormE = external global ptr, align 8

; Function Attrs: mustprogress nounwind uwtable
define linkonce_odr dso_local noundef nonnull align 1 dereferenceable(1) ptr @_ZNSt10_Head_baseILm1ESt14default_deleteI23cmCursesLongMessageFormELb1EE7_M_headERS3_(ptr noundef nonnull align 1 dereferenceable(1) %0) #5 comdat align 2 {
  %2 = alloca ptr, align 8
  store ptr %0, ptr %2, align 8
  %3 = load ptr, ptr %2, align 8
  ret ptr %3
}

; Function Attrs: mustprogress nounwind uwtable
define linkonce_odr dso_local noundef nonnull align 8 dereferenceable(8) ptr @_ZNSt10_Head_baseILm0EP23cmCursesLongMessageFormLb0EE7_M_headERS2_(ptr noundef nonnull align 8 dereferenceable(8) %0) #5 comdat align 2 {
  %2 = alloca ptr, align 8
  store ptr %0, ptr %2, align 8
  %3 = load ptr, ptr %2, align 8
  %4 = getelementptr inbounds %"struct.std::_Head_base.9", ptr %3, i32 0, i32 0
  ret ptr %4
}

; Function Attrs: mustprogress nounwind uwtable
define linkonce_odr dso_local noundef nonnull align 1 dereferenceable(1) ptr @_ZNSt11_Tuple_implILm1EJSt14default_deleteI23cmCursesLongMessageFormEEE7_M_headERS3_(ptr noundef nonnull align 1 dereferenceable(1) %0) #5 comdat align 2 {
  %2 = alloca ptr, align 8
  store ptr %0, ptr %2, align 8
  %3 = load ptr, ptr %2, align 8
  %4 = call noundef nonnull align 1 dereferenceable(1) ptr @_ZNSt10_Head_baseILm1ESt14default_deleteI23cmCursesLongMessageFormELb1EE7_M_headERS3_(ptr noundef nonnull align 1 dereferenceable(1) %3) #3
  ret ptr %4
}

; Function Attrs: mustprogress nounwind uwtable
define linkonce_odr dso_local noundef nonnull align 8 dereferenceable(8) ptr @_ZNSt11_Tuple_implILm0EJP23cmCursesLongMessageFormSt14default_deleteIS0_EEE7_M_headERS4_(ptr noundef nonnull align 8 dereferenceable(8) %0) #5 comdat align 2 {
  %2 = alloca ptr, align 8
  store ptr %0, ptr %2, align 8
  %3 = load ptr, ptr %2, align 8
  %4 = call noundef nonnull align 8 dereferenceable(8) ptr @_ZNSt10_Head_baseILm0EP23cmCursesLongMessageFormLb0EE7_M_headERS2_(ptr noundef nonnull align 8 dereferenceable(8) %3) #3
  ret ptr %4
}

; Function Attrs: mustprogress nounwind uwtable
define linkonce_odr dso_local noundef nonnull align 8 dereferenceable(8) ptr @_ZNSt10_Head_baseILm0EP23cmCursesLongMessageFormLb0EE7_M_headERKS2_(ptr noundef nonnull align 8 dereferenceable(8) %0) #5 comdat align 2 {
  %2 = alloca ptr, align 8
  store ptr %0, ptr %2, align 8
  %3 = load ptr, ptr %2, align 8
  %4 = getelementptr inbounds %"struct.std::_Head_base.9", ptr %3, i32 0, i32 0
  ret ptr %4
}

; Function Attrs: mustprogress nounwind uwtable
define linkonce_odr dso_local noundef nonnull align 1 dereferenceable(1) ptr @_ZSt12__get_helperILm1ESt14default_deleteI23cmCursesLongMessageFormEJEERT0_RSt11_Tuple_implIXT_EJS3_DpT1_EE(ptr noundef nonnull align 1 dereferenceable(1) %0) #5 comdat {
  %2 = alloca ptr, align 8
  store ptr %0, ptr %2, align 8
  %3 = load ptr, ptr %2, align 8
  %4 = call noundef nonnull align 1 dereferenceable(1) ptr @_ZNSt11_Tuple_implILm1EJSt14default_deleteI23cmCursesLongMessageFormEEE7_M_headERS3_(ptr noundef nonnull align 1 dereferenceable(1) %3) #3
  ret ptr %4
}

; Function Attrs: mustprogress nounwind uwtable
define linkonce_odr dso_local noundef nonnull align 8 dereferenceable(8) ptr @_ZSt12__get_helperILm0EP23cmCursesLongMessageFormJSt14default_deleteIS0_EEERT0_RSt11_Tuple_implIXT_EJS4_DpT1_EE(ptr noundef nonnull align 8 dereferenceable(8) %0) #5 comdat {
  %2 = alloca ptr, align 8
  store ptr %0, ptr %2, align 8
  %3 = load ptr, ptr %2, align 8
  %4 = call noundef nonnull align 8 dereferenceable(8) ptr @_ZNSt11_Tuple_implILm0EJP23cmCursesLongMessageFormSt14default_deleteIS0_EEE7_M_headERS4_(ptr noundef nonnull align 8 dereferenceable(8) %3) #3
  ret ptr %4
}

; Function Attrs: mustprogress nounwind uwtable
define linkonce_odr dso_local noundef nonnull align 8 dereferenceable(8) ptr @_ZNSt11_Tuple_implILm0EJP23cmCursesLongMessageFormSt14default_deleteIS0_EEE7_M_headERKS4_(ptr noundef nonnull align 8 dereferenceable(8) %0) #5 comdat align 2 {
  %2 = alloca ptr, align 8
  store ptr %0, ptr %2, align 8
  %3 = load ptr, ptr %2, align 8
  %4 = call noundef nonnull align 8 dereferenceable(8) ptr @_ZNSt10_Head_baseILm0EP23cmCursesLongMessageFormLb0EE7_M_headERKS2_(ptr noundef nonnull align 8 dereferenceable(8) %3) #3
  ret ptr %4
}

; Function Attrs: mustprogress nounwind uwtable
define linkonce_odr dso_local noundef nonnull align 1 dereferenceable(1) ptr @_ZSt3getILm1EJP23cmCursesLongMessageFormSt14default_deleteIS0_EEERNSt13tuple_elementIXT_ESt5tupleIJDpT0_EEE4typeERS8_(ptr noundef nonnull align 8 dereferenceable(8) %0) #5 comdat {
  %2 = alloca ptr, align 8
  store ptr %0, ptr %2, align 8
  %3 = load ptr, ptr %2, align 8
  %4 = call noundef nonnull align 1 dereferenceable(1) ptr @_ZSt12__get_helperILm1ESt14default_deleteI23cmCursesLongMessageFormEJEERT0_RSt11_Tuple_implIXT_EJS3_DpT1_EE(ptr noundef nonnull align 1 dereferenceable(1) %3) #3
  ret ptr %4
}

; Function Attrs: mustprogress nounwind uwtable
define linkonce_odr dso_local noundef nonnull align 8 dereferenceable(8) ptr @_ZSt3getILm0EJP23cmCursesLongMessageFormSt14default_deleteIS0_EEERNSt13tuple_elementIXT_ESt5tupleIJDpT0_EEE4typeERS8_(ptr noundef nonnull align 8 dereferenceable(8) %0) #5 comdat {
  %2 = alloca ptr, align 8
  store ptr %0, ptr %2, align 8
  %3 = load ptr, ptr %2, align 8
  %4 = call noundef nonnull align 8 dereferenceable(8) ptr @_ZSt12__get_helperILm0EP23cmCursesLongMessageFormJSt14default_deleteIS0_EEERT0_RSt11_Tuple_implIXT_EJS4_DpT1_EE(ptr noundef nonnull align 8 dereferenceable(8) %3) #3
  ret ptr %4
}

; Function Attrs: mustprogress nounwind uwtable
define linkonce_odr dso_local noundef nonnull align 8 dereferenceable(8) ptr @_ZSt12__get_helperILm0EP23cmCursesLongMessageFormJSt14default_deleteIS0_EEERKT0_RKSt11_Tuple_implIXT_EJS4_DpT1_EE(ptr noundef nonnull align 8 dereferenceable(8) %0) #5 comdat {
  %2 = alloca ptr, align 8
  store ptr %0, ptr %2, align 8
  %3 = load ptr, ptr %2, align 8
  %4 = call noundef nonnull align 8 dereferenceable(8) ptr @_ZNSt11_Tuple_implILm0EJP23cmCursesLongMessageFormSt14default_deleteIS0_EEE7_M_headERKS4_(ptr noundef nonnull align 8 dereferenceable(8) %3) #3
  ret ptr %4
}

; Function Attrs: mustprogress nounwind uwtable
define linkonce_odr dso_local void @_ZNKSt14default_deleteI23cmCursesLongMessageFormEclEPS0_(ptr noundef nonnull align 1 dereferenceable(1) %0, ptr noundef %1) #5 comdat align 2 {
  %3 = alloca ptr, align 8
  %4 = alloca ptr, align 8
  store ptr %0, ptr %3, align 8
  store ptr %1, ptr %4, align 8
  %5 = load ptr, ptr %4, align 8
  %6 = icmp eq ptr %5, null
  br i1 %6, label %11, label %7

7:                                                ; preds = %2
  %8 = load ptr, ptr %5, align 8
  %9 = getelementptr inbounds ptr, ptr %8, i64 1
  %10 = load ptr, ptr %9, align 8
  call void %10(ptr noundef nonnull align 8 dereferenceable(104) %5) #3
  br label %11

11:                                               ; preds = %7, %2
  ret void
}

; Function Attrs: mustprogress nounwind uwtable
define linkonce_odr dso_local noundef nonnull align 1 dereferenceable(1) ptr @_ZNSt15__uniq_ptr_implI23cmCursesLongMessageFormSt14default_deleteIS0_EE10_M_deleterEv(ptr noundef nonnull align 8 dereferenceable(8) %0) #5 comdat align 2 {
  %2 = alloca ptr, align 8
  store ptr %0, ptr %2, align 8
  %3 = load ptr, ptr %2, align 8
  %4 = getelementptr inbounds %"class.std::__uniq_ptr_impl", ptr %3, i32 0, i32 0
  %5 = call noundef nonnull align 1 dereferenceable(1) ptr @_ZSt3getILm1EJP23cmCursesLongMessageFormSt14default_deleteIS0_EEERNSt13tuple_elementIXT_ESt5tupleIJDpT0_EEE4typeERS8_(ptr noundef nonnull align 8 dereferenceable(8) %4) #3
  ret ptr %5
}

; Function Attrs: mustprogress nounwind uwtable
define linkonce_odr dso_local noundef nonnull align 8 dereferenceable(8) ptr @_ZNSt15__uniq_ptr_implI23cmCursesLongMessageFormSt14default_deleteIS0_EE6_M_ptrEv(ptr noundef nonnull align 8 dereferenceable(8) %0) #5 comdat align 2 {
  %2 = alloca ptr, align 8
  store ptr %0, ptr %2, align 8
  %3 = load ptr, ptr %2, align 8
  %4 = getelementptr inbounds %"class.std::__uniq_ptr_impl", ptr %3, i32 0, i32 0
  %5 = call noundef nonnull align 8 dereferenceable(8) ptr @_ZSt3getILm0EJP23cmCursesLongMessageFormSt14default_deleteIS0_EEERNSt13tuple_elementIXT_ESt5tupleIJDpT0_EEE4typeERS8_(ptr noundef nonnull align 8 dereferenceable(8) %4) #3
  ret ptr %5
}

; Function Attrs: mustprogress nounwind uwtable
define linkonce_odr dso_local noundef nonnull align 8 dereferenceable(8) ptr @_ZSt3getILm0EJP23cmCursesLongMessageFormSt14default_deleteIS0_EEERKNSt13tuple_elementIXT_ESt5tupleIJDpT0_EEE4typeERKS8_(ptr noundef nonnull align 8 dereferenceable(8) %0) #5 comdat {
  %2 = alloca ptr, align 8
  store ptr %0, ptr %2, align 8
  %3 = load ptr, ptr %2, align 8
  %4 = call noundef nonnull align 8 dereferenceable(8) ptr @_ZSt12__get_helperILm0EP23cmCursesLongMessageFormJSt14default_deleteIS0_EEERKT0_RKSt11_Tuple_implIXT_EJS4_DpT1_EE(ptr noundef nonnull align 8 dereferenceable(8) %3) #3
  ret ptr %4
}

; Function Attrs: mustprogress nounwind uwtable
define linkonce_odr dso_local void @_ZNSt15__uniq_ptr_implI23cmCursesLongMessageFormSt14default_deleteIS0_EE5resetEPS0_(ptr noundef nonnull align 8 dereferenceable(8) %0, ptr noundef %1) #5 comdat align 2 {
  %3 = alloca ptr, align 8
  %4 = alloca ptr, align 8
  %5 = alloca ptr, align 8
  store ptr %0, ptr %3, align 8
  store ptr %1, ptr %4, align 8
  %6 = load ptr, ptr %3, align 8
  %7 = call noundef nonnull align 8 dereferenceable(8) ptr @_ZNSt15__uniq_ptr_implI23cmCursesLongMessageFormSt14default_deleteIS0_EE6_M_ptrEv(ptr noundef nonnull align 8 dereferenceable(8) %6) #3
  %8 = load ptr, ptr %7, align 8
  store ptr %8, ptr %5, align 8
  %9 = load ptr, ptr %4, align 8
  %10 = call noundef nonnull align 8 dereferenceable(8) ptr @_ZNSt15__uniq_ptr_implI23cmCursesLongMessageFormSt14default_deleteIS0_EE6_M_ptrEv(ptr noundef nonnull align 8 dereferenceable(8) %6) #3
  store ptr %9, ptr %10, align 8
  %11 = load ptr, ptr %5, align 8
  %12 = icmp ne ptr %11, null
  br i1 %12, label %13, label %16

13:                                               ; preds = %2
  %14 = call noundef nonnull align 1 dereferenceable(1) ptr @_ZNSt15__uniq_ptr_implI23cmCursesLongMessageFormSt14default_deleteIS0_EE10_M_deleterEv(ptr noundef nonnull align 8 dereferenceable(8) %6) #3
  %15 = load ptr, ptr %5, align 8
  call void @_ZNKSt14default_deleteI23cmCursesLongMessageFormEclEPS0_(ptr noundef nonnull align 1 dereferenceable(1) %14, ptr noundef %15)
  br label %16

16:                                               ; preds = %13, %2
  ret void
}

; Function Attrs: mustprogress nounwind uwtable
define linkonce_odr dso_local noundef ptr @_ZNKSt15__uniq_ptr_implI23cmCursesLongMessageFormSt14default_deleteIS0_EE6_M_ptrEv(ptr noundef nonnull align 8 dereferenceable(8) %0) #5 comdat align 2 {
  %2 = alloca ptr, align 8
  store ptr %0, ptr %2, align 8
  %3 = load ptr, ptr %2, align 8
  %4 = getelementptr inbounds %"class.std::__uniq_ptr_impl", ptr %3, i32 0, i32 0
  %5 = call noundef nonnull align 8 dereferenceable(8) ptr @_ZSt3getILm0EJP23cmCursesLongMessageFormSt14default_deleteIS0_EEERKNSt13tuple_elementIXT_ESt5tupleIJDpT0_EEE4typeERKS8_(ptr noundef nonnull align 8 dereferenceable(8) %4) #3
  %6 = load ptr, ptr %5, align 8
  ret ptr %6
}

; Function Attrs: mustprogress nounwind uwtable
define linkonce_odr dso_local noundef ptr @_ZNKSt10unique_ptrI23cmCursesLongMessageFormSt14default_deleteIS0_EEptEv(ptr noundef nonnull align 8 dereferenceable(8) %0) #5 comdat align 2 {
  %2 = alloca ptr, align 8
  store ptr %0, ptr %2, align 8
  %3 = load ptr, ptr %2, align 8
  %4 = call noundef ptr @_ZNKSt10unique_ptrI23cmCursesLongMessageFormSt14default_deleteIS0_EE3getEv(ptr noundef nonnull align 8 dereferenceable(8) %3) #3
  ret ptr %4
}

; Function Attrs: mustprogress nounwind uwtable
define linkonce_odr dso_local void @_ZNSt10unique_ptrI23cmCursesLongMessageFormSt14default_deleteIS0_EE5resetEPS0_(ptr noundef nonnull align 8 dereferenceable(8) %0, ptr noundef %1) #5 comdat align 2 {
  %3 = alloca ptr, align 8
  %4 = alloca ptr, align 8
  store ptr %0, ptr %3, align 8
  store ptr %1, ptr %4, align 8
  %5 = load ptr, ptr %3, align 8
  %6 = getelementptr inbounds %"class.std::unique_ptr", ptr %5, i32 0, i32 0
  %7 = load ptr, ptr %4, align 8
  call void @_ZNSt15__uniq_ptr_implI23cmCursesLongMessageFormSt14default_deleteIS0_EE5resetEPS0_(ptr noundef nonnull align 8 dereferenceable(8) %6, ptr noundef %7) #3
  ret void
}

; Function Attrs: mustprogress nounwind uwtable
define linkonce_odr dso_local noundef ptr @_ZNKSt10unique_ptrI23cmCursesLongMessageFormSt14default_deleteIS0_EE3getEv(ptr noundef nonnull align 8 dereferenceable(8) %0) #5 comdat align 2 {
  %2 = alloca ptr, align 8
  store ptr %0, ptr %2, align 8
  %3 = load ptr, ptr %2, align 8
  %4 = getelementptr inbounds %"class.std::unique_ptr", ptr %3, i32 0, i32 0
  %5 = call noundef ptr @_ZNKSt15__uniq_ptr_implI23cmCursesLongMessageFormSt14default_deleteIS0_EE6_M_ptrEv(ptr noundef nonnull align 8 dereferenceable(8) %4) #3
  ret ptr %5
}

; Function Attrs: mustprogress uwtable
define dso_local void @_ZN16cmCursesMainForm14DisplayOutputsERKNSt7__cxx1112basic_stringIcSt11char_traitsIcESaIcEEE(ptr noundef nonnull align 8 dereferenceable(297) %0, ptr noundef nonnull align 8 dereferenceable(32) %1) #4 align 2 personality ptr @__gxx_personality_v0 {
  %3 = alloca ptr, align 8
  %4 = alloca ptr, align 8
  %5 = alloca i32, align 4
  %6 = alloca i32, align 4
  %7 = alloca ptr, align 8
  %8 = alloca ptr, align 8
  %9 = alloca i32, align 4
  store ptr %0, ptr %3, align 8
  store ptr %1, ptr %4, align 8
  %10 = load ptr, ptr %3, align 8
  %11 = load ptr, ptr @stdscr, align 8
  %12 = icmp ne ptr null, %11
  br i1 %12, label %13, label %19

13:                                               ; preds = %2
  %14 = load ptr, ptr @stdscr, align 8
  %15 = getelementptr inbounds %struct._win_st, ptr %14, i32 0, i32 2
  %16 = load i16, ptr %15, align 4
  %17 = sext i16 %16 to i32
  %18 = add nsw i32 %17, 1
  br label %20

19:                                               ; preds = %2
  br label %20

20:                                               ; preds = %19, %13
  %21 = phi i32 [ %18, %13 ], [ -1, %19 ]
  store i32 %21, ptr %6, align 4
  %22 = load ptr, ptr @stdscr, align 8
  %23 = icmp ne ptr null, %22
  br i1 %23, label %24, label %30

24:                                               ; preds = %20
  %25 = load ptr, ptr @stdscr, align 8
  %26 = getelementptr inbounds %struct._win_st, ptr %25, i32 0, i32 3
  %27 = load i16, ptr %26, align 2
  %28 = sext i16 %27 to i32
  %29 = add nsw i32 %28, 1
  br label %31

30:                                               ; preds = %20
  br label %31

31:                                               ; preds = %30, %24
  %32 = phi i32 [ %29, %24 ], [ -1, %30 ]
  store i32 %32, ptr %5, align 4
  %33 = load ptr, ptr @_ZN12cmCursesForm11CurrentFormE, align 8
  %34 = getelementptr inbounds %class.cmCursesMainForm, ptr %10, i32 0, i32 2
  %35 = call noundef ptr @_ZNKSt10unique_ptrI23cmCursesLongMessageFormSt14default_deleteIS0_EE3getEv(ptr noundef nonnull align 8 dereferenceable(8) %34) #3
  %36 = icmp ne ptr %33, %35
  br i1 %36, label %37, label %57

37:                                               ; preds = %31
  %38 = call noalias noundef nonnull ptr @_Znwm(i64 noundef 104) #13
  %39 = getelementptr inbounds %class.cmCursesMainForm, ptr %10, i32 0, i32 3
  %40 = getelementptr inbounds %class.cmCursesMainForm, ptr %10, i32 0, i32 6
  %41 = call noundef ptr @_ZNKSt7__cxx1112basic_stringIcSt11char_traitsIcESaIcEE5c_strEv(ptr noundef nonnull align 8 dereferenceable(32) %40) #3
  invoke void @_ZN23cmCursesLongMessageFormC1ERKSt6vectorINSt7__cxx1112basic_stringIcSt11char_traitsIcESaIcEEESaIS6_EEPKcNS_14ScrollBehaviorE(ptr noundef nonnull align 8 dereferenceable(104) %38, ptr noundef nonnull align 8 dereferenceable(24) %39, ptr noundef %41, i32 noundef 1)
          to label %42 unwind label %53

42:                                               ; preds = %37
  store ptr %38, ptr %7, align 8
  %43 = load ptr, ptr %7, align 8
  store ptr %43, ptr @_ZN12cmCursesForm11CurrentFormE, align 8
  %44 = getelementptr inbounds %class.cmCursesMainForm, ptr %10, i32 0, i32 2
  %45 = load ptr, ptr %7, align 8
  call void @_ZNSt10unique_ptrI23cmCursesLongMessageFormSt14default_deleteIS0_EE5resetEPS0_(ptr noundef nonnull align 8 dereferenceable(8) %44, ptr noundef %45) #3
  %46 = getelementptr inbounds %class.cmCursesMainForm, ptr %10, i32 0, i32 2
  %47 = call noundef ptr @_ZNKSt10unique_ptrI23cmCursesLongMessageFormSt14default_deleteIS0_EEptEv(ptr noundef nonnull align 8 dereferenceable(8) %46) #3
  %48 = load i32, ptr %5, align 4
  %49 = load i32, ptr %6, align 4
  %50 = load ptr, ptr %47, align 8
  %51 = getelementptr inbounds ptr, ptr %50, i64 3
  %52 = load ptr, ptr %51, align 8
  call void %52(ptr noundef nonnull align 8 dereferenceable(104) %47, i32 noundef 1, i32 noundef 1, i32 noundef %48, i32 noundef %49)
  br label %62

53:                                               ; preds = %37
  %54 = landingpad { ptr, i32 }
          cleanup
  %55 = extractvalue { ptr, i32 } %54, 0
  store ptr %55, ptr %8, align 8
  %56 = extractvalue { ptr, i32 } %54, 1
  store i32 %56, ptr %9, align 4
  call void @_ZdlPv(ptr noundef %38) #14
  br label %63

57:                                               ; preds = %31
  %58 = getelementptr inbounds %class.cmCursesMainForm, ptr %10, i32 0, i32 2
  %59 = call noundef ptr @_ZNKSt10unique_ptrI23cmCursesLongMessageFormSt14default_deleteIS0_EEptEv(ptr noundef nonnull align 8 dereferenceable(8) %58) #3
  %60 = load ptr, ptr %4, align 8
  %61 = getelementptr inbounds %class.cmCursesMainForm, ptr %10, i32 0, i32 6
  call void @_ZN23cmCursesLongMessageForm13UpdateContentERKNSt7__cxx1112basic_stringIcSt11char_traitsIcESaIcEEES7_(ptr noundef nonnull align 8 dereferenceable(104) %59, ptr noundef nonnull align 8 dereferenceable(32) %60, ptr noundef nonnull align 8 dereferenceable(32) %61)
  br label %62

62:                                               ; preds = %57, %42
  ret void

63:                                               ; preds = %53
  %64 = load ptr, ptr %8, align 8
  %65 = load i32, ptr %9, align 4
  %66 = insertvalue { ptr, i32 } poison, ptr %64, 0
  %67 = insertvalue { ptr, i32 } %66, i32 %65, 1
  resume { ptr, i32 } %67
}