; Function Attrs: mustprogress uwtable
define dso_local void @_ZN16cmCursesMainForm14DisplayOutputsERKNSt7__cxx1112basic_stringIcSt11char_traitsIcESaIcEEE(ptr noundef nonnull align 8 dereferenceable(297) %0, ptr noundef nonnull align 8 dereferenceable(32) %1) local_unnamed_addr #3 align 2 personality ptr @__gxx_personality_v0 {
  %3 = load ptr, ptr @stdscr, align 8
  %.not = icmp eq ptr %3, null
  br i1 %.not, label %.thread, label %4

4:                                                ; preds = %2
  %5 = getelementptr inbounds i8, ptr %3, i64 4
  %6 = load i16, ptr %5, align 4
  %7 = sext i16 %6 to i32
  %8 = add nsw i32 %7, 1
  %9 = getelementptr inbounds i8, ptr %3, i64 6
  %10 = load i16, ptr %9, align 2
  %11 = sext i16 %10 to i32
  %12 = add nsw i32 %11, 1
  br label %.thread

.thread:                                          ; preds = %2, %4
  %13 = phi i32 [ %8, %4 ], [ -1, %2 ]
  %14 = phi i32 [ %12, %4 ], [ -1, %2 ]
  %15 = load ptr, ptr @_ZN12cmCursesForm11CurrentFormE, align 8
  %16 = getelementptr inbounds i8, ptr %0, i64 40
  %17 = load ptr, ptr %16, align 8
  %.not9 = icmp eq ptr %15, %17
  br i1 %.not9, label %34, label %18

18:                                               ; preds = %.thread
  %19 = tail call noalias noundef nonnull dereferenceable(104) ptr @_Znwm(i64 noundef 104) #20
  %20 = getelementptr inbounds i8, ptr %0, i64 48
  %21 = getelementptr inbounds i8, ptr %0, i64 80
  %22 = tail call noundef ptr @_ZNKSt7__cxx1112basic_stringIcSt11char_traitsIcESaIcEE5c_strEv(ptr noundef nonnull align 8 dereferenceable(32) %21) #19
  invoke void @_ZN23cmCursesLongMessageFormC1ERKSt6vectorINSt7__cxx1112basic_stringIcSt11char_traitsIcESaIcEEESaIS6_EEPKcNS_14ScrollBehaviorE(ptr noundef nonnull align 8 dereferenceable(104) %19, ptr noundef nonnull align 8 dereferenceable(24) %20, ptr noundef %22, i32 noundef 1)
          to label %23 unwind label %32

23:                                               ; preds = %18
  store ptr %19, ptr @_ZN12cmCursesForm11CurrentFormE, align 8
  %24 = load ptr, ptr %16, align 8
  store ptr %19, ptr %16, align 8
  %.not.i.i = icmp eq ptr %24, null
  br i1 %.not.i.i, label %_ZNSt10unique_ptrI23cmCursesLongMessageFormSt14default_deleteIS0_EE5resetEPS0_.exit, label %_ZNKSt14default_deleteI23cmCursesLongMessageFormEclEPS0_.exit.i.i

_ZNKSt14default_deleteI23cmCursesLongMessageFormEclEPS0_.exit.i.i: ; preds = %23
  %25 = load ptr, ptr %24, align 8
  %26 = getelementptr inbounds i8, ptr %25, i64 8
  %27 = load ptr, ptr %26, align 8
  tail call void %27(ptr noundef nonnull align 8 dereferenceable(104) %24) #19
  %.pre = load ptr, ptr %16, align 8
  br label %_ZNSt10unique_ptrI23cmCursesLongMessageFormSt14default_deleteIS0_EE5resetEPS0_.exit

_ZNSt10unique_ptrI23cmCursesLongMessageFormSt14default_deleteIS0_EE5resetEPS0_.exit: ; preds = %23, %_ZNKSt14default_deleteI23cmCursesLongMessageFormEclEPS0_.exit.i.i
  %28 = phi ptr [ %19, %23 ], [ %.pre, %_ZNKSt14default_deleteI23cmCursesLongMessageFormEclEPS0_.exit.i.i ]
  %29 = load ptr, ptr %28, align 8
  %30 = getelementptr inbounds i8, ptr %29, i64 24
  %31 = load ptr, ptr %30, align 8
  tail call void %31(ptr noundef nonnull align 8 dereferenceable(104) %28, i32 noundef 1, i32 noundef 1, i32 noundef %14, i32 noundef %13)
  br label %36

32:                                               ; preds = %18
  %33 = landingpad { ptr, i32 }
          cleanup
  tail call void @_ZdlPv(ptr noundef nonnull %19) #21
  resume { ptr, i32 } %33

34:                                               ; preds = %.thread
  %35 = getelementptr inbounds i8, ptr %0, i64 80
  tail call void @_ZN23cmCursesLongMessageForm13UpdateContentERKNSt7__cxx1112basic_stringIcSt11char_traitsIcESaIcEEES7_(ptr noundef nonnull align 8 dereferenceable(104) %15, ptr noundef nonnull align 8 dereferenceable(32) %1, ptr noundef nonnull align 8 dereferenceable(32) %35)
  br label %36

36:                                               ; preds = %34, %_ZNSt10unique_ptrI23cmCursesLongMessageFormSt14default_deleteIS0_EE5resetEPS0_.exit
  ret void
}